target datalayout = "e-m:e-p270:32:32-p271:32:32-p272:64:64-i64:64-i128:128-f80:128-n8:16:32:64-S128"
target triple = "x86_64-pc-linux-gnu"

%struct.nwk_key_entry_s = type { [16 x i8], ptr, ptr, i8, i8, i8 }

@nwk_key_storage = internal global [64 x %struct.nwk_key_entry_s] zeroinitializer, align 16

; Function Attrs: alwaysinline nounwind
define internal ptr @memcpy.inline(ptr noalias %0, ptr noalias %1, i64 %2) #1 {
  %4 = alloca ptr, align 8
  %5 = alloca ptr, align 8
  %6 = alloca i64, align 8
  store ptr %0, ptr %4, align 8
  store ptr %1, ptr %5, align 8
  store i64 %2, ptr %6, align 8
  %7 = load ptr, ptr %4, align 8
  %8 = load ptr, ptr %5, align 8
  %9 = load i64, ptr %6, align 8
  %10 = load ptr, ptr %4, align 8
  %11 = call i64 @llvm.objectsize.i64.p0(ptr %10, i1 false, i1 true, i1 true)
  %12 = call ptr @__memcpy_chk(ptr noundef %7, ptr noundef %8, i64 noundef %9, i64 noundef %11) #9
  ret ptr %12
}

; Function Attrs: nounwind null_pointer_is_valid sspstrong uwtable
define internal ptr @nwk_key_storage_get_entry_by_key(ptr noundef %0, i1 noundef zeroext %1) #0 {
  %3 = alloca ptr, align 8
  %4 = alloca i8, align 1
  %5 = alloca ptr, align 8
  %6 = alloca i32, align 4
  store ptr %0, ptr %3, align 8
  %7 = zext i1 %1 to i8
  store i8 %7, ptr %4, align 1
  call void @llvm.lifetime.start.p0(i64 8, ptr %5) #9
  store ptr null, ptr %5, align 8
  call void @llvm.lifetime.start.p0(i64 4, ptr %6) #9
  store i32 0, ptr %6, align 4
  br label %8

8:                                                ; preds = %43, %2
  %9 = load i32, ptr %6, align 4
  %10 = icmp slt i32 %9, 64
  br i1 %10, label %11, label %46

11:                                               ; preds = %8
  %12 = load i32, ptr %6, align 4
  %13 = sext i32 %12 to i64
  %14 = getelementptr [64 x %struct.nwk_key_entry_s], ptr @nwk_key_storage, i64 0, i64 %13
  %15 = getelementptr inbounds nuw %struct.nwk_key_entry_s, ptr %14, i32 0, i32 4
  %16 = load i8, ptr %15, align 1, !range !6, !noundef !7
  %17 = trunc i8 %16 to i1
  br i1 %17, label %18, label %43

18:                                               ; preds = %11
  %19 = load i32, ptr %6, align 4
  %20 = sext i32 %19 to i64
  %21 = getelementptr [64 x %struct.nwk_key_entry_s], ptr @nwk_key_storage, i64 0, i64 %20
  %22 = getelementptr inbounds nuw %struct.nwk_key_entry_s, ptr %21, i32 0, i32 3
  %23 = load i8, ptr %22, align 8, !range !6, !noundef !7
  %24 = trunc i8 %23 to i1
  %25 = zext i1 %24 to i32
  %26 = load i8, ptr %4, align 1, !range !6, !noundef !7
  %27 = trunc i8 %26 to i1
  %28 = zext i1 %27 to i32
  %29 = icmp eq i32 %25, %28
  br i1 %29, label %30, label %43

30:                                               ; preds = %18
  %31 = load i32, ptr %6, align 4
  %32 = sext i32 %31 to i64
  %33 = getelementptr [64 x %struct.nwk_key_entry_s], ptr @nwk_key_storage, i64 0, i64 %32
  %34 = getelementptr inbounds nuw %struct.nwk_key_entry_s, ptr %33, i32 0, i32 0
  %35 = getelementptr inbounds [16 x i8], ptr %34, i64 0, i64 0
  %36 = load ptr, ptr %3, align 8
  %37 = call i32 @memcmp(ptr noundef %35, ptr noundef %36, i64 noundef 16) #10
  %38 = icmp eq i32 %37, 0
  br i1 %38, label %39, label %43

39:                                               ; preds = %30
  %40 = load i32, ptr %6, align 4
  %41 = sext i32 %40 to i64
  %42 = getelementptr %struct.nwk_key_entry_s, ptr @nwk_key_storage, i64 %41
  store ptr %42, ptr %5, align 8
  br label %46

43:                                               ; preds = %30, %18, %11
  %44 = load i32, ptr %6, align 4
  %45 = add i32 %44, 1
  store i32 %45, ptr %6, align 4
  br label %8, !llvm.loop !15

46:                                               ; preds = %39, %8
  %47 = load ptr, ptr %5, align 8
  call void @llvm.lifetime.end.p0(i64 4, ptr %6) #9
  call void @llvm.lifetime.end.p0(i64 8, ptr %5) #9
  ret ptr %47
}

; Function Attrs: null_pointer_is_valid sspstrong uwtable
define hidden void @nwk_key_storage_add_entry(ptr noundef %0, ptr noundef %1, ptr noundef %2, i1 noundef zeroext %3, i1 noundef zeroext %4) #2 {
  %6 = alloca ptr, align 8
  %7 = alloca ptr, align 8
  %8 = alloca ptr, align 8
  %9 = alloca i8, align 1
  %10 = alloca i8, align 1
  %11 = alloca ptr, align 8
  %12 = alloca i32, align 4
  store ptr %0, ptr %6, align 8
  store ptr %1, ptr %7, align 8
  store ptr %2, ptr %8, align 8
  %13 = zext i1 %3 to i8
  store i8 %13, ptr %9, align 1
  %14 = zext i1 %4 to i8
  store i8 %14, ptr %10, align 1
  call void @llvm.lifetime.start.p0(i64 8, ptr %11) #9
  %15 = load ptr, ptr %6, align 8
  %16 = load i8, ptr %9, align 1, !range !6, !noundef !7
  %17 = trunc i8 %16 to i1
  %18 = call ptr @nwk_key_storage_get_entry_by_key(ptr noundef %15, i1 noundef zeroext %17)
  store ptr %18, ptr %11, align 8
  %19 = load ptr, ptr %11, align 8
  %20 = icmp eq ptr %19, null
  br i1 %20, label %21, label %72

21:                                               ; preds = %5
  call void @llvm.lifetime.start.p0(i64 4, ptr %12) #9
  store i32 0, ptr %12, align 4
  br label %22

22:                                               ; preds = %68, %21
  %23 = load i32, ptr %12, align 4
  %24 = icmp slt i32 %23, 64
  br i1 %24, label %25, label %71

25:                                               ; preds = %22
  %26 = load i32, ptr %12, align 4
  %27 = sext i32 %26 to i64
  %28 = getelementptr [64 x %struct.nwk_key_entry_s], ptr @nwk_key_storage, i64 0, i64 %27
  %29 = getelementptr inbounds nuw %struct.nwk_key_entry_s, ptr %28, i32 0, i32 4
  %30 = load i8, ptr %29, align 1, !range !6, !noundef !7
  %31 = trunc i8 %30 to i1
  br i1 %31, label %68, label %32

32:                                               ; preds = %25
  %33 = load i32, ptr %12, align 4
  %34 = sext i32 %33 to i64
  %35 = getelementptr [64 x %struct.nwk_key_entry_s], ptr @nwk_key_storage, i64 0, i64 %34
  %36 = getelementptr inbounds nuw %struct.nwk_key_entry_s, ptr %35, i32 0, i32 0
  %37 = getelementptr inbounds [16 x i8], ptr %36, i64 0, i64 0
  %38 = load ptr, ptr %6, align 8
  %39 = call ptr @memcpy.inline(ptr noundef %37, ptr noundef %38, i64 noundef 16) #9
  %40 = load ptr, ptr %7, align 8
  %41 = load i32, ptr %12, align 4
  %42 = sext i32 %41 to i64
  %43 = getelementptr [64 x %struct.nwk_key_entry_s], ptr @nwk_key_storage, i64 0, i64 %42
  %44 = getelementptr inbounds nuw %struct.nwk_key_entry_s, ptr %43, i32 0, i32 1
  store ptr %40, ptr %44, align 8
  %45 = load ptr, ptr %8, align 8
  %46 = load i32, ptr %12, align 4
  %47 = sext i32 %46 to i64
  %48 = getelementptr [64 x %struct.nwk_key_entry_s], ptr @nwk_key_storage, i64 0, i64 %47
  %49 = getelementptr inbounds nuw %struct.nwk_key_entry_s, ptr %48, i32 0, i32 2
  store ptr %45, ptr %49, align 8
  %50 = load i8, ptr %9, align 1, !range !6, !noundef !7
  %51 = trunc i8 %50 to i1
  %52 = load i32, ptr %12, align 4
  %53 = sext i32 %52 to i64
  %54 = getelementptr [64 x %struct.nwk_key_entry_s], ptr @nwk_key_storage, i64 0, i64 %53
  %55 = getelementptr inbounds nuw %struct.nwk_key_entry_s, ptr %54, i32 0, i32 3
  %56 = zext i1 %51 to i8
  store i8 %56, ptr %55, align 8
  %57 = load i32, ptr %12, align 4
  %58 = sext i32 %57 to i64
  %59 = getelementptr [64 x %struct.nwk_key_entry_s], ptr @nwk_key_storage, i64 0, i64 %58
  %60 = getelementptr inbounds nuw %struct.nwk_key_entry_s, ptr %59, i32 0, i32 4
  store i8 1, ptr %60, align 1
  %61 = load i8, ptr %10, align 1, !range !6, !noundef !7
  %62 = trunc i8 %61 to i1
  %63 = load i32, ptr %12, align 4
  %64 = sext i32 %63 to i64
  %65 = getelementptr [64 x %struct.nwk_key_entry_s], ptr @nwk_key_storage, i64 0, i64 %64
  %66 = getelementptr inbounds nuw %struct.nwk_key_entry_s, ptr %65, i32 0, i32 5
  %67 = zext i1 %62 to i8
  store i8 %67, ptr %66, align 2
  br label %71

68:                                               ; preds = %25
  %69 = load i32, ptr %12, align 4
  %70 = add i32 %69, 1
  store i32 %70, ptr %12, align 4
  br label %22, !llvm.loop !14

71:                                               ; preds = %32, %22
  call void @llvm.lifetime.end.p0(i64 4, ptr %12) #9
  br label %72

72:                                               ; preds = %71, %5
  call void @llvm.lifetime.end.p0(i64 8, ptr %11) #9
  ret void
}