; Function Attrs: nofree nounwind null_pointer_is_valid sspstrong memory(readwrite, inaccessiblemem: none) uwtable
define hidden void @nwk_key_storage_add_entry(ptr noundef readonly captures(none) %0, ptr noundef %1, ptr noundef %2, i1 noundef zeroext %3, i1 noundef zeroext %4) local_unnamed_addr #1 {
  %6 = zext i1 %3 to i8
  %7 = zext i1 %4 to i8
  br label %8

8:                                                ; preds = %19, %5
  %indvars.iv.i = phi i64 [ 0, %5 ], [ %indvars.iv.next.i, %19 ]
  %9 = getelementptr [64 x %struct.nwk_key_entry_s], ptr @nwk_key_storage, i64 0, i64 %indvars.iv.i
  %10 = getelementptr inbounds nuw i8, ptr %9, i64 33
  %11 = load i8, ptr %10, align 1, !range !8, !noundef !9
  %12 = trunc nuw i8 %11 to i1
  br i1 %12, label %13, label %19

13:                                               ; preds = %8
  %14 = getelementptr inbounds nuw i8, ptr %9, i64 32
  %15 = load i8, ptr %14, align 8, !range !8, !noundef !9
  %16 = icmp eq i8 %15, %6
  br i1 %16, label %17, label %19

17:                                               ; preds = %13
  %bcmp.i = tail call i32 @bcmp(ptr noundef dereferenceable(16) %9, ptr noundef readonly dereferenceable(16) %0, i64 16)
  %18 = icmp eq i32 %bcmp.i, 0
  br i1 %18, label %nwk_key_storage_get_entry_by_key.exit, label %19

19:                                               ; preds = %17, %13, %8
  %indvars.iv.next.i = add nuw nsw i64 %indvars.iv.i, 1
  %exitcond.not.i = icmp eq i64 %indvars.iv.next.i, 64
  br i1 %exitcond.not.i, label %.preheader.preheader, label %8, !llvm.loop !13

nwk_key_storage_get_entry_by_key.exit:            ; preds = %17
  %20 = icmp eq ptr %9, null
  br i1 %20, label %.preheader.preheader, label %.loopexit

.preheader.preheader:                             ; preds = %19, %nwk_key_storage_get_entry_by_key.exit
  br label %.preheader

21:                                               ; preds = %.preheader
  %indvars.iv.next = add nuw nsw i64 %indvars.iv, 1
  %exitcond.not = icmp eq i64 %indvars.iv.next, 64
  br i1 %exitcond.not, label %.loopexit, label %.preheader, !llvm.loop !14

.preheader:                                       ; preds = %.preheader.preheader, %21
  %indvars.iv = phi i64 [ %indvars.iv.next, %21 ], [ 0, %.preheader.preheader ]
  %22 = getelementptr [64 x %struct.nwk_key_entry_s], ptr @nwk_key_storage, i64 0, i64 %indvars.iv
  %23 = getelementptr inbounds nuw i8, ptr %22, i64 33
  %24 = load i8, ptr %23, align 1, !range !8, !noundef !9
  %25 = trunc nuw i8 %24 to i1
  br i1 %25, label %21, label %26

26:                                               ; preds = %.preheader
  %27 = getelementptr inbounds nuw i8, ptr %22, i64 33
  %.idx.neg = mul nsw i64 %indvars.iv, -40
  %28 = add nsw i64 %.idx.neg, 2560
  %29 = tail call ptr @__memcpy_chk(ptr noundef %22, ptr noundef %0, i64 noundef 16, i64 noundef %28) #17, !alias.scope !20
  %30 = getelementptr inbounds nuw i8, ptr %22, i64 16
  store ptr %1, ptr %30, align 8
  %31 = getelementptr inbounds nuw i8, ptr %22, i64 24
  store ptr %2, ptr %31, align 8
  %32 = getelementptr inbounds nuw i8, ptr %22, i64 32
  store i8 %6, ptr %32, align 8
  store i8 1, ptr %27, align 1
  %33 = getelementptr inbounds nuw i8, ptr %22, i64 34
  store i8 %7, ptr %33, align 2
  br label %.loopexit

.loopexit:                                        ; preds = %21, %26, %nwk_key_storage_get_entry_by_key.exit
  ret void
}